target datalayout = "e-m:e-p270:32:32-p271:32:32-p272:64:64-i64:64-i128:128-f80:128-n8:16:32:64-S128"
target triple = "x86_64-pc-linux-gnu"

%struct.AbiType = type { %union.anon.1 }
%union.anon.1 = type { ptr }

; Function Attrs: nounwind uwtable
define internal i32 @next_highest_power_of_2(i32 noundef %0) #0 {
  %2 = alloca i32, align 4
  store i32 %0, ptr %2, align 4
  %3 = load i32, ptr %2, align 4
  %4 = add i32 %3, -1
  store i32 %4, ptr %2, align 4
  %5 = load i32, ptr %2, align 4
  %6 = lshr i32 %5, 1
  %7 = load i32, ptr %2, align 4
  %8 = or i32 %7, %6
  store i32 %8, ptr %2, align 4
  %9 = load i32, ptr %2, align 4
  %10 = lshr i32 %9, 2
  %11 = load i32, ptr %2, align 4
  %12 = or i32 %11, %10
  store i32 %12, ptr %2, align 4
  %13 = load i32, ptr %2, align 4
  %14 = lshr i32 %13, 4
  %15 = load i32, ptr %2, align 4
  %16 = or i32 %15, %14
  store i32 %16, ptr %2, align 4
  %17 = load i32, ptr %2, align 4
  %18 = lshr i32 %17, 8
  %19 = load i32, ptr %2, align 4
  %20 = or i32 %19, %18
  store i32 %20, ptr %2, align 4
  %21 = load i32, ptr %2, align 4
  %22 = lshr i32 %21, 16
  %23 = load i32, ptr %2, align 4
  %24 = or i32 %23, %22
  store i32 %24, ptr %2, align 4
  %25 = load i32, ptr %2, align 4
  %26 = add i32 %25, 1
  store i32 %26, ptr %2, align 4
  %27 = load i32, ptr %2, align 4
  ret i32 %27
}

; Function Attrs: nounwind uwtable
define internal zeroext i1 @abi_type_is_type(ptr %0) #0 {
  %2 = alloca %struct.AbiType, align 8
  %3 = getelementptr inbounds %struct.AbiType, ptr %2, i32 0, i32 0
  %4 = getelementptr inbounds %union.anon.1, ptr %3, i32 0, i32 0
  store ptr %0, ptr %4, align 8
  %5 = getelementptr inbounds %struct.AbiType, ptr %2, i32 0, i32 0
  %6 = load i64, ptr %5, align 8
  %7 = and i64 %6, 1
  %8 = icmp ne i64 %7, 0
  %9 = xor i1 %8, true
  ret i1 %9
}

; Function Attrs: nounwind uwtable
define dso_local i32 @abi_type_abi_alignment(ptr %0) #0 {
  %2 = alloca i32, align 4
  %3 = alloca %struct.AbiType, align 8
  %4 = getelementptr inbounds %struct.AbiType, ptr %3, i32 0, i32 0
  %5 = getelementptr inbounds %union.anon.1, ptr %4, i32 0, i32 0
  store ptr %0, ptr %5, align 8
  %6 = getelementptr inbounds %struct.AbiType, ptr %3, i32 0, i32 0
  %7 = getelementptr inbounds %union.anon.1, ptr %6, i32 0, i32 0
  %8 = load ptr, ptr %7, align 8
  %9 = call zeroext i1 @abi_type_is_type(ptr %8)
  br i1 %9, label %10, label %14

10:                                               ; preds = %1
  %11 = getelementptr inbounds %struct.AbiType, ptr %3, i32 0, i32 0
  %12 = load ptr, ptr %11, align 8
  %13 = call i32 @type_abi_alignment(ptr noundef %12)
  store i32 %13, ptr %2, align 4
  br label %23

14:                                               ; preds = %1
  %15 = getelementptr inbounds %struct.AbiType, ptr %3, i32 0, i32 0
  %16 = load i64, ptr %15, align 8
  %17 = sub i64 %16, 1
  %18 = trunc i64 %17 to i32
  %19 = call i32 @next_highest_power_of_2(i32 noundef %18)
  %20 = zext i32 %19 to i64
  %21 = call ptr @type_int_unsigned_by_bitsize(i64 noundef %20)
  %22 = call i32 @type_abi_alignment(ptr noundef %21)
  store i32 %22, ptr %2, align 4
  br label %23

23:                                               ; preds = %14, %10
  %24 = load i32, ptr %2, align 4
  ret i32 %24
}