; Function Attrs: nounwind uwtable
define dso_local i32 @abi_type_abi_alignment(ptr %0) local_unnamed_addr #2 {
  %2 = ptrtoint ptr %0 to i64
  %3 = and i64 %2, 1
  %.not.i = icmp eq i64 %3, 0
  br i1 %.not.i, label %20, label %4

4:                                                ; preds = %1
  %5 = trunc i64 %2 to i32
  %6 = add i32 %5, -2
  %7 = lshr i32 %6, 1
  %8 = or i32 %7, %6
  %9 = lshr i32 %8, 2
  %10 = or i32 %9, %8
  %11 = lshr i32 %10, 4
  %12 = or i32 %11, %10
  %13 = lshr i32 %12, 8
  %14 = or i32 %13, %12
  %15 = lshr i32 %14, 16
  %16 = or i32 %15, %14
  %17 = add i32 %16, 1
  %18 = zext i32 %17 to i64
  %19 = tail call ptr @type_int_unsigned_by_bitsize(i64 noundef %18) #5
  br label %20

20:                                               ; preds = %1, %4
  %.sink = phi ptr [ %19, %4 ], [ %0, %1 ]
  %21 = tail call i32 @type_abi_alignment(ptr noundef %.sink) #5
  ret i32 %21
}